; Function Attrs: mustprogress nounwind willreturn uwtable
define void @_Z16yy_delete_bufferP15yy_buffer_statePv(ptr noundef %0, ptr nocapture noundef readonly %1) local_unnamed_addr #17 {
  %.not = icmp eq ptr %0, null
  br i1 %.not, label %25, label %3

3:                                                ; preds = %2
  %4 = getelementptr inbounds i8, ptr %1, i64 40
  %5 = load ptr, ptr %4, align 8
  %.not14 = icmp eq ptr %5, null
  br i1 %.not14, label %11, label %6

6:                                                ; preds = %3
  %7 = getelementptr inbounds i8, ptr %1, i64 24
  %8 = load i64, ptr %7, align 8
  %9 = getelementptr inbounds ptr, ptr %5, i64 %8
  %10 = load ptr, ptr %9, align 8
  br label %11

11:                                               ; preds = %3, %6
  %12 = phi ptr [ %10, %6 ], [ null, %3 ]
  %13 = icmp eq ptr %12, %0
  br i1 %13, label %14, label %18

14:                                               ; preds = %11
  %15 = getelementptr inbounds i8, ptr %1, i64 24
  %16 = load i64, ptr %15, align 8
  %17 = getelementptr inbounds ptr, ptr %5, i64 %16
  store ptr null, ptr %17, align 8
  br label %18

18:                                               ; preds = %14, %11
  %19 = getelementptr inbounds i8, ptr %0, i64 32
  %20 = load i32, ptr %19, align 8
  %.not15 = icmp eq i32 %20, 0
  br i1 %.not15, label %24, label %21

21:                                               ; preds = %18
  %22 = getelementptr inbounds i8, ptr %0, i64 8
  %23 = load ptr, ptr %22, align 8
  tail call void @free(ptr noundef %23) #43
  br label %24

24:                                               ; preds = %21, %18
  tail call void @free(ptr noundef nonnull %0) #43
  br label %25

25:                                               ; preds = %2, %24
  ret void
}